Certificate:
    Data:
        Version: 3 (0x2)
        Serial Number:
            d3:d7:bc:cd:93:f3:4b:8f
    Signature Algorithm: sha256WithRSAEncryption
        Issuer: C=ES, ST=ASTURIAS, L=AVILES, O=CA01-24, CN=CA01-24 Authority Certificate
        Validity
            Not Before: Apr 29 09:39:34 2026 GMT
            Not After : Mar 12 11:39:34 2036 GMT
        Subject: C=ES, ST=ASTURIAS, L=AVILES, O=CA01-24, CN=moodle.asi-242v.cifpaviles.com
        Subject Public Key Info:
            Public Key Algorithm: rsaEncryption
                Public-Key: (2048 bit)
                Modulus:
                    00:da:72:25:c2:b3:dd:d0:94:cd:69:72:a1:6b:27:
                    5d:e0:e4:98:88:9f:20:8c:52:32:c9:0a:10:0b:f8:
                    19:04:f6:db:53:cb:9b:23:85:f8:48:d0:34:0e:57:
                    11:f3:65:93:5c:9d:81:17:5e:78:c4:ea:80:d7:c7:
                    ea:60:45:47:1e:5c:ae:d9:fe:2a:fa:e6:18:90:67:
                    83:a6:d8:37:b3:46:a3:0e:e5:56:54:eb:f2:95:1f:
                    05:d7:08:f3:80:50:fd:55:24:3e:4c:66:2e:a8:44:
                    85:a0:5c:fd:31:ed:72:cd:7d:cb:02:ee:38:9f:e5:
                    0c:9a:89:6f:34:23:bf:e8:b0:37:7e:59:c3:02:cc:
                    29:e1:cb:03:51:15:1e:7c:f4:f7:00:e4:bc:b0:0c:
                    30:b2:78:54:fc:ec:1b:d4:db:0b:75:ad:4f:13:e2:
                    7c:c4:8e:8c:ff:5d:21:3f:9c:1c:57:26:c0:39:7d:
                    b0:7f:93:18:15:27:e5:53:14:39:02:09:36:be:0f:
                    68:a2:65:b4:5f:55:e1:e0:22:ae:71:ec:a6:e7:fc:
                    58:46:d4:b4:2b:c0:22:3e:6c:1a:c8:4f:72:ec:38:
                    2d:22:e2:3d:36:c1:1b:5d:b4:60:7d:9f:c6:30:41:
                    7b:47:8a:05:19:5d:8b:6c:89:4e:b0:98:17:e1:80:
                    79:37
                Exponent: 65537 (0x10001)
        X509v3 extensions:
            X509v3 Authority Key Identifier: 
                keyid:58:E9:57:EF:4E:C4:B4:57:2B:BB:F2:10:43:5F:4E:A5:22:19:DF:51

            X509v3 Subject Key Identifier: 
                38:79:7E:EF:15:1B:32:E7:46:64:19:BD:6D:59:1C:C5:06:27:49:0B
            Netscape Comment: 
                OpenSSL Generated Certificate
            X509v3 Basic Constraints: 
                CA:FALSE
    Signature Algorithm: sha256WithRSAEncryption
         21:99:40:68:94:2d:90:dd:cc:a0:9a:b1:f4:ad:38:bb:75:a5:
         2c:93:f0:92:a0:1b:1a:e9:4e:49:a6:30:57:bd:30:38:3b:e7:
         17:7f:02:91:24:01:4b:65:59:aa:25:04:43:98:7a:2c:58:db:
         f9:bf:b4:bd:f9:13:b0:39:67:36:76:57:a1:fe:4e:f5:47:c9:
         37:fa:8d:ef:7a:2e:3c:f0:4e:37:7b:d8:54:f4:9c:d3:f7:3f:
         00:cf:5e:2e:8b:9f:62:c5:04:ee:44:73:1d:44:d2:db:19:56:
         ca:5a:b1:a9:ff:a8:d6:ad:51:7c:22:b8:b8:7e:36:97:d0:08:
         56:3e:f5:51:fc:fb:02:e4:52:80:6a:6a:09:cc:6b:29:ca:02:
         55:47:41:80:03:af:2c:bb:0e:cd:39:91:74:19:fa:02:d7:8f:
         06:88:44:43:5f:7d:fd:cd:99:40:4a:32:ff:a1:57:59:a5:7b:
         19:a5:b5:75:b1:8d:31:b2:0c:52:10:81:23:7e:f1:8e:10:fd:
         98:41:c0:90:8e:d2:f0:b2:c8:f2:8a:54:5f:2b:c1:7b:7a:af:
         41:ab:6a:25:f1:7e:95:54:dc:66:5e:0a:24:14:c7:f2:0f:39:
         43:95:47:e1:07:14:e9:13:bc:a8:3f:83:e8:d2:96:41:4a:5c:
         af:7b:03:1e
-----BEGIN CERTIFICATE-----
MIID1TCCAr2gAwIBAgIJANPXvM2T80uPMA0GCSqGSIb3DQEBCwUAMGsxCzAJBgNV
BAYTAkVTMREwDwYDVQQIEwhBU1RVUklBUzEPMA0GA1UEBxMGQVZJTEVTMRAwDgYD
VQQKEwdDQTAxLTI0MSYwJAYDVQQDEx1DQTAxLTI0IEF1dGhvcml0eSBDZXJ0aWZp
Y2F0ZTAeFw0yNjA0MjkwOTM5MzRaFw0zNjAzMTIxMTM5MzRaMGwxCzAJBgNVBAYT
AkVTMREwDwYDVQQIEwhBU1RVUklBUzEPMA0GA1UEBxMGQVZJTEVTMRAwDgYDVQQK
EwdDQTAxLTI0MScwJQYDVQQDEx5tb29kbGUuYXNpLTI0MnYuY2lmcGF2aWxlcy5j
b20wggEiMA0GCSqGSIb3DQEBAQUAA4IBDwAwggEKAoIBAQDaciXCs93QlM1pcqFr
J13g5JiInyCMUjLJChAL+BkE9ttTy5sjhfhI0DQOVxHzZZNcnYEXXnjE6oDXx+pg
RUceXK7Z/ir65hiQZ4Om2DezRqMO5VZU6/KVHwXXCPOAUP1VJD5MZi6oRIWgXP0x
7XLNfcsC7jif5QyaiW80I7/osDd+WcMCzCnhywNRFR589PcA5LywDDCyeFT87BvU
2wt1rU8T4nzEjoz/XSE/nBxXJsA5fbB/kxgVJ+VTFDkCCTa+D2iiZbRfVeHgIq5x
7Kbn/FhG1LQrwCI+bBrIT3LsOC0i4j02wRtdtGB9n8YwQXtHigUZXYtsiU6wmBfh
gHk3AgMBAAGjezB5MB8GA1UdIwQYMBaAFFjpV+9OxLRXK7vyEENfTqUiGd9RMB0G
A1UdDgQWBBQ4eX7vFRsy50ZkGb1tWRzFBidJCzAsBglghkgBhvhCAQ0EHxYdT3Bl
blNTTCBHZW5lcmF0ZWQgQ2VydGlmaWNhdGUwCQYDVR0TBAIwADANBgkqhkiG9w0B
AQsFAAOCAQEAIZlAaJQtkN3MoJqx9K04u3WlLJPwkqAbGulOSaYwV70wODvnF38C
kSQBS2VZqiUEQ5h6LFjb+b+0vfkTsDlnNnZXof5O9UfJN/qN73ouPPBON3vYVPSc
0/c/AM9eLoufYsUE7kRzHUTS2xlWylqxqf+o1q1RfCK4uH42l9AIVj71Ufz7AuRS
gGpqCcxrKcoCVUdBgAOvLLsOzTmRdBn6AtePBohEQ199/c2ZQEoy/6FXWaV7GaW1
dbGNMbIMUhCBI37xjhD9mEHAkI7S8LLI8opUXyvBe3qvQatqJfF+lVTcZl4KJBTH
8g85Q5VH4QcU6RO8qD+D6NKWQUpcr3sDHg==
-----END CERTIFICATE-----

Bag Attributes
    localKeyID: C6 B9 5C E2 56 D8 44 86 9F FD 30 43 06 25 BB 5D 34 D2 53 39 
    friendlyName: moodle.asi-242v.cifpaviles.com
subject=C = ES, ST = ASTURIAS, L = AVILES, O = CA01-24, CN = moodle.asi-242v.cifpaviles.com
issuer=C = ES, ST = ASTURIAS, L = AVILES, O = CA01-24, CN = CA01-24 Authority Certificate
-----BEGIN CERTIFICATE-----
MIID1TCCAr2gAwIBAgIJANPXvM2T80uPMA0GCSqGSIb3DQEBCwUAMGsxCzAJBgNV
BAYTAkVTMREwDwYDVQQIEwhBU1RVUklBUzEPMA0GA1UEBxMGQVZJTEVTMRAwDgYD
VQQKEwdDQTAxLTI0MSYwJAYDVQQDEx1DQTAxLTI0IEF1dGhvcml0eSBDZXJ0aWZp
Y2F0ZTAeFw0yNjA0MjkwOTM5MzRaFw0zNjAzMTIxMTM5MzRaMGwxCzAJBgNVBAYT
AkVTMREwDwYDVQQIEwhBU1RVUklBUzEPMA0GA1UEBxMGQVZJTEVTMRAwDgYDVQQK
EwdDQTAxLTI0MScwJQYDVQQDEx5tb29kbGUuYXNpLTI0MnYuY2lmcGF2aWxlcy5j
b20wggEiMA0GCSqGSIb3DQEBAQUAA4IBDwAwggEKAoIBAQDaciXCs93QlM1pcqFr
J13g5JiInyCMUjLJChAL+BkE9ttTy5sjhfhI0DQOVxHzZZNcnYEXXnjE6oDXx+pg
RUceXK7Z/ir65hiQZ4Om2DezRqMO5VZU6/KVHwXXCPOAUP1VJD5MZi6oRIWgXP0x
7XLNfcsC7jif5QyaiW80I7/osDd+WcMCzCnhywNRFR589PcA5LywDDCyeFT87BvU
2wt1rU8T4nzEjoz/XSE/nBxXJsA5fbB/kxgVJ+VTFDkCCTa+D2iiZbRfVeHgIq5x
7Kbn/FhG1LQrwCI+bBrIT3LsOC0i4j02wRtdtGB9n8YwQXtHigUZXYtsiU6wmBfh
gHk3AgMBAAGjezB5MB8GA1UdIwQYMBaAFFjpV+9OxLRXK7vyEENfTqUiGd9RMB0G
A1UdDgQWBBQ4eX7vFRsy50ZkGb1tWRzFBidJCzAsBglghkgBhvhCAQ0EHxYdT3Bl
blNTTCBHZW5lcmF0ZWQgQ2VydGlmaWNhdGUwCQYDVR0TBAIwADANBgkqhkiG9w0B
AQsFAAOCAQEAIZlAaJQtkN3MoJqx9K04u3WlLJPwkqAbGulOSaYwV70wODvnF38C
kSQBS2VZqiUEQ5h6LFjb+b+0vfkTsDlnNnZXof5O9UfJN/qN73ouPPBON3vYVPSc
0/c/AM9eLoufYsUE7kRzHUTS2xlWylqxqf+o1q1RfCK4uH42l9AIVj71Ufz7AuRS
gGpqCcxrKcoCVUdBgAOvLLsOzTmRdBn6AtePBohEQ199/c2ZQEoy/6FXWaV7GaW1
dbGNMbIMUhCBI37xjhD9mEHAkI7S8LLI8opUXyvBe3qvQatqJfF+lVTcZl4KJBTH
8g85Q5VH4QcU6RO8qD+D6NKWQUpcr3sDHg==
-----END CERTIFICATE-----
