Certificate:
    Data:
        Version: 3 (0x2)
        Serial Number: 109448302352620679 (0x184d6a6aeff5c87)
    Signature Algorithm: sha256WithRSAEncryption
        Issuer: C=ES, ST=ASTURIAS, L=AVILES, O=CA01-242V, CN=CA01-242V Authority Certificate
        Validity
            Not Before: May  1 11:09:35 2026 GMT
            Not After : Apr 28 10:43:58 2036 GMT
        Subject: C=ES, ST=ASTURIAS, L=AVILES, O=CA01-242V, CN=moodle.asi-242v.cifpaviles.com
        Subject Public Key Info:
            Public Key Algorithm: rsaEncryption
                Public-Key: (2048 bit)
                Modulus:
                    00:af:de:be:17:a7:04:2f:b7:68:19:32:57:e4:49:
                    a6:c8:d9:ba:db:7f:9f:ae:80:80:d8:a2:6d:d6:d8:
                    4d:7a:4a:3b:1a:2c:8c:2a:11:84:22:d8:af:d8:7e:
                    3a:f0:16:15:57:4e:8d:88:a5:74:55:37:a7:3e:53:
                    fe:37:f8:d4:de:60:0a:5b:ce:e7:89:22:73:27:cf:
                    fc:d2:78:a7:b8:90:45:18:4a:8e:5e:0b:af:63:4b:
                    eb:42:ad:d0:be:ba:70:e1:c4:8b:3a:01:82:c8:e8:
                    17:1d:ef:2d:da:b7:63:ce:c6:0b:ed:47:6e:2a:4a:
                    be:65:33:b6:f1:1f:db:be:6a:86:db:82:f9:ab:86:
                    e2:07:18:83:14:cd:d0:04:6b:70:02:c6:2c:a2:e7:
                    20:4a:cf:e0:16:a3:bb:8e:45:f9:d1:aa:e3:51:8b:
                    88:5f:41:7b:db:49:ca:c0:37:39:de:76:5d:be:90:
                    1b:22:1d:0d:a3:d8:3a:d3:9d:0f:62:77:63:fd:03:
                    f3:35:20:37:44:fc:33:5f:1f:ff:1a:0c:ed:0a:0e:
                    bf:3f:2f:9d:9f:1a:66:65:f8:80:e3:e9:c6:4a:12:
                    ef:96:a8:5a:63:08:51:a0:13:f6:c5:44:4c:7a:ac:
                    7d:3b:4b:b3:dc:45:9b:50:07:61:c3:4a:64:ca:51:
                    70:75
                Exponent: 65537 (0x10001)
        X509v3 extensions:
            X509v3 Authority Key Identifier: 
                keyid:C3:95:61:EA:8F:20:7A:7D:FF:AD:90:44:B5:3A:38:1E:0B:9F:54:74

            X509v3 Subject Key Identifier: 
                1D:07:D5:4A:A0:79:2D:8C:38:79:AA:FF:A8:42:91:A1:48:EB:96:65
            Netscape Comment: 
                OpenSSL Generated Certificate
            X509v3 Basic Constraints: 
                CA:FALSE
    Signature Algorithm: sha256WithRSAEncryption
         b8:37:e5:0a:63:bd:80:14:6b:7b:19:91:ec:c7:2a:7d:ea:52:
         9d:dd:19:db:18:cd:3e:f4:cb:ae:12:ca:1b:1f:9d:1b:fd:6d:
         d8:68:d3:da:85:9d:8c:d3:3c:93:ae:6b:22:f9:a6:41:17:87:
         44:ee:41:92:97:b1:aa:ee:f4:86:85:43:30:98:72:0b:bb:5f:
         70:b4:37:cc:38:c5:e9:6b:2d:74:10:bc:fd:2b:3a:0d:73:f3:
         46:ad:f9:fa:ac:02:cb:e9:14:2b:ad:b7:99:3c:8d:ee:90:99:
         1c:3e:2e:10:6e:6a:ea:ac:fd:b7:52:ae:1b:0e:07:eb:c3:2e:
         a6:b8:13:9a:e6:d9:95:19:52:c7:68:1f:ae:81:e6:46:28:1d:
         68:49:6f:70:2b:b2:01:3a:a2:0d:71:af:20:92:6c:53:88:7d:
         4f:98:80:92:39:93:09:5e:b2:9c:70:21:dc:a4:fc:6a:41:94:
         6b:bb:4a:80:5a:74:c3:58:d6:73:32:29:ed:5f:f0:82:fe:22:
         2c:d8:ca:df:59:3d:ae:f2:b9:35:20:a7:62:06:91:fa:e7:be:
         04:db:cb:26:a7:4b:17:c7:06:4a:4b:d4:a8:88:6c:e5:71:21:
         10:72:3a:1e:c6:f6:ca:be:97:64:00:9b:58:8d:f2:ea:1e:57:
         81:e2:07:b9
-----BEGIN CERTIFICATE-----
MIID2jCCAsKgAwIBAgIIAYTWpq7/XIcwDQYJKoZIhvcNAQELBQAwbzELMAkGA1UE
BhMCRVMxETAPBgNVBAgTCEFTVFVSSUFTMQ8wDQYDVQQHEwZBVklMRVMxEjAQBgNV
BAoTCUNBMDEtMjQyVjEoMCYGA1UEAxMfQ0EwMS0yNDJWIEF1dGhvcml0eSBDZXJ0
aWZpY2F0ZTAeFw0yNjA1MDExMTA5MzVaFw0zNjA0MjgxMDQzNThaMG4xCzAJBgNV
BAYTAkVTMREwDwYDVQQIEwhBU1RVUklBUzEPMA0GA1UEBxMGQVZJTEVTMRIwEAYD
VQQKEwlDQTAxLTI0MlYxJzAlBgNVBAMTHm1vb2RsZS5hc2ktMjQydi5jaWZwYXZp
bGVzLmNvbTCCASIwDQYJKoZIhvcNAQEBBQADggEPADCCAQoCggEBAK/evhenBC+3
aBkyV+RJpsjZutt/n66AgNiibdbYTXpKOxosjCoRhCLYr9h+OvAWFVdOjYildFU3
pz5T/jf41N5gClvO54kicyfP/NJ4p7iQRRhKjl4Lr2NL60Kt0L66cOHEizoBgsjo
Fx3vLdq3Y87GC+1HbipKvmUztvEf275qhtuC+auG4gcYgxTN0ARrcALGLKLnIErP
4Baju45F+dGq41GLiF9Be9tJysA3Od52Xb6QGyIdDaPYOtOdD2J3Y/0D8zUgN0T8
M18f/xoM7QoOvz8vnZ8aZmX4gOPpxkoS75aoWmMIUaAT9sVETHqsfTtLs9xFm1AH
YcNKZMpRcHUCAwEAAaN7MHkwHwYDVR0jBBgwFoAUw5Vh6o8gen3/rZBEtTo4Hguf
VHQwHQYDVR0OBBYEFB0H1UqgeS2MOHmq/6hCkaFI65ZlMCwGCWCGSAGG+EIBDQQf
Fh1PcGVuU1NMIEdlbmVyYXRlZCBDZXJ0aWZpY2F0ZTAJBgNVHRMEAjAAMA0GCSqG
SIb3DQEBCwUAA4IBAQC4N+UKY72AFGt7GZHsxyp96lKd3RnbGM0+9MuuEsobH50b
/W3YaNPahZ2M0zyTrmsi+aZBF4dE7kGSl7Gq7vSGhUMwmHILu19wtDfMOMXpay10
ELz9KzoNc/NGrfn6rALL6RQrrbeZPI3ukJkcPi4QbmrqrP23Uq4bDgfrwy6muBOa
5tmVGVLHaB+ugeZGKB1oSW9wK7IBOqINca8gkmxTiH1PmICSOZMJXrKccCHcpPxq
QZRru0qAWnTDWNZzMintX/CC/iIs2MrfWT2u8rk1IKdiBpH6574E28smp0sXxwZK
S9SoiGzlcSEQcjoexvbKvpdkAJtYjfLqHleB4ge5
-----END CERTIFICATE-----

-----BEGIN CERTIFICATE-----
MIIENDCCAxygAwIBAgIIAYTWpq7/XIIwDQYJKoZIhvcNAQELBQAwbzELMAkGA1UE
BhMCRVMxETAPBgNVBAgTCEFTVFVSSUFTMQ8wDQYDVQQHEwZBVklMRVMxEjAQBgNV
BAoTCUNBMDEtMjQyVjEoMCYGA1UEAxMfQ0EwMS0yNDJWIEF1dGhvcml0eSBDZXJ0
aWZpY2F0ZTAeFw0yNjA1MDExMDQzNThaFw0zNjA0MjgxMDQzNThaMG8xCzAJBgNV
BAYTAkVTMREwDwYDVQQIEwhBU1RVUklBUzEPMA0GA1UEBxMGQVZJTEVTMRIwEAYD
VQQKEwlDQTAxLTI0MlYxKDAmBgNVBAMTH0NBMDEtMjQyViBBdXRob3JpdHkgQ2Vy
dGlmaWNhdGUwggEiMA0GCSqGSIb3DQEBAQUAA4IBDwAwggEKAoIBAQDM3iIRF6mZ
fUclvQo6MF/IYSN2jFjUzE1FzRhqN0ydpu2ELsWrmG8jSN8qgzzECtMXP+exkZEm
XekspF9w65WtygUGyi6AiOBIP7ugeS6qDr55LHrJsbXIxG3FY6e4WY3PwXezjUNG
px8R9JvqAPRuFzZ5IVaNYSLbggriHIRAuPstXk/ntQbiZnGXFwaV6yeTGKw1tCs+
XsKmUfzSPMPCKOLilmNBUY3HEg/Q+WWS/mx8oe/Kk5QS+ZkEtwc2q0tcS5GvJUjh
VYOrS/HeMGHBl8K54xEA3+mIbOXcyHnsvJ4rGWPizoROtoWj83Otg/Ycsp4UuRcK
eDkJzEq5soYBAgMBAAGjgdMwgdAwHQYDVR0OBBYEFMOVYeqPIHp9/62QRLU6OB4L
n1R0MIGgBgNVHSMEgZgwgZWAFMOVYeqPIHp9/62QRLU6OB4Ln1R0oXOkcTBvMQsw
CQYDVQQGEwJFUzERMA8GA1UECBMIQVNUVVJJQVMxDzANBgNVBAcTBkFWSUxFUzES
MBAGA1UEChMJQ0EwMS0yNDJWMSgwJgYDVQQDEx9DQTAxLTI0MlYgQXV0aG9yaXR5
IENlcnRpZmljYXRlgggBhNamrv9cgjAMBgNVHRMEBTADAQH/MA0GCSqGSIb3DQEB
CwUAA4IBAQAs8UtsfKpNvR4fBcoXYxzFfhOGE0gO/gDlseLy2sAytXqZLFwfDY6f
wocsqfANNo9WEMNuTkil3up8hsFgLR5PLwNFN6hWM+/zlajCK9Jb09u0Qa3so2Yb
oKnbXuCo2aISSq2fr+yIcj5OB6g3z0cV8Sh+4b0w5eGWWO6tyutmwkGixq/kGY76
sER4GVPfXDMX2DXDWf7XK1t2KTE74eBI6tKu0oPLkMirVzf15LdZdNnqS7OKREXt
16QLCNftZfGlts00aszuDcBGrQFsccFTNtmjwb3sbSywjPpa+2w3eGp4SuS15BfV
ija+hDAfFmTphuKE5bS29STAIYAXPyGf
-----END CERTIFICATE-----
