Certificate:
    Data:
        Version: 3 (0x2)
        Serial Number: 109448302352620681 (0x184d6a6aeff5c89)
    Signature Algorithm: sha256WithRSAEncryption
        Issuer: C=ES, ST=ASTURIAS, L=AVILES, O=CA01-242V, CN=CA01-242V Authority Certificate
        Validity
            Not Before: May  1 11:09:49 2026 GMT
            Not After : Apr 28 10:43:58 2036 GMT
        Subject: C=ES, ST=ASTURIAS, L=AVILES, O=CA01-242V, CN=inventario.asi-242v.cifpaviles.com
        Subject Public Key Info:
            Public Key Algorithm: rsaEncryption
                Public-Key: (2048 bit)
                Modulus:
                    00:eb:33:fb:e7:53:37:f6:d3:7e:c6:11:59:2a:02:
                    67:1e:2b:f7:50:5f:e7:09:dd:e4:19:6e:8a:cd:c7:
                    9a:ca:90:be:a8:28:93:14:14:8f:1a:47:68:b9:1d:
                    f9:4b:95:72:58:df:17:e9:5f:72:8b:aa:99:6d:a2:
                    c9:60:cd:11:be:4a:2c:0c:7c:57:c3:3a:52:29:b5:
                    63:c3:0c:de:ad:ed:b3:46:ba:da:f2:8b:48:dc:b6:
                    8f:98:a0:2d:e8:5a:0d:c7:67:cc:6e:4f:f1:56:6b:
                    09:62:bc:3a:bb:da:07:bb:93:0e:c6:c3:5e:bc:8e:
                    ac:6b:37:b9:be:c9:6c:2e:c3:e7:f5:6e:05:8e:27:
                    76:a3:2c:fa:7d:e4:a3:2e:2d:82:7b:37:fb:1e:02:
                    08:81:d9:95:27:04:0b:74:66:2f:ee:48:52:12:59:
                    bd:4c:e6:22:63:e2:f5:37:b4:4c:55:ef:4d:83:83:
                    13:fb:cc:d7:14:e1:bc:5a:90:1d:a0:97:75:d8:28:
                    47:4c:89:ae:47:43:1a:e3:bd:6d:62:45:1b:0f:7b:
                    72:3a:1a:91:6e:ba:02:74:2f:9e:85:8c:8c:95:7e:
                    81:10:c4:f1:a4:2d:be:d5:92:d6:31:c2:b1:80:30:
                    33:f0:2f:11:db:5c:6c:36:d8:53:34:b3:79:db:a4:
                    60:17
                Exponent: 65537 (0x10001)
        X509v3 extensions:
            X509v3 Authority Key Identifier: 
                keyid:C3:95:61:EA:8F:20:7A:7D:FF:AD:90:44:B5:3A:38:1E:0B:9F:54:74

            X509v3 Subject Key Identifier: 
                10:B7:2E:F8:78:83:D6:A5:4E:58:0F:E7:24:53:2B:89:7C:BD:BD:F2
            Netscape Comment: 
                OpenSSL Generated Certificate
            X509v3 Basic Constraints: 
                CA:FALSE
    Signature Algorithm: sha256WithRSAEncryption
         41:bc:ae:a5:d0:28:b7:0c:bc:28:c1:d6:43:a2:c8:16:19:8f:
         f2:0b:4f:42:6f:1d:80:7a:3c:0d:eb:b1:31:85:38:a7:15:83:
         d4:64:fb:b5:46:5c:d0:b4:9b:f7:4c:4e:38:04:4e:c8:96:47:
         3c:37:b5:2e:69:13:80:ce:a7:c4:bd:5c:e0:fb:15:44:5b:3d:
         c2:68:b4:93:37:6b:d2:e2:73:3d:17:48:46:d3:66:2f:f4:13:
         9d:2d:55:31:16:ac:4d:b6:1d:0d:85:8f:15:ab:6f:ef:e7:27:
         2b:33:6f:56:7c:cd:4d:6c:51:89:19:6f:33:fc:f9:8c:61:96:
         54:69:ae:60:8e:00:42:51:9d:d4:14:87:2b:02:15:ec:6a:c2:
         c0:02:70:33:3b:1f:0a:42:f7:b6:40:d7:b2:e0:e5:e0:41:93:
         90:1c:92:99:21:22:70:ee:29:9f:c4:4d:85:33:3e:b1:c5:ad:
         57:10:a5:08:a0:16:9c:2e:a1:ca:03:da:d0:70:1c:90:53:9c:
         d6:c1:66:e4:d7:c4:5c:ba:16:32:d8:9b:75:a4:92:02:7c:62:
         31:1c:f9:08:3a:92:cc:f0:d4:78:77:b5:62:56:34:39:86:83:
         c7:84:bc:f9:d7:3b:77:da:0d:ca:66:71:c1:38:a7:d1:27:01:
         2d:90:59:53
-----BEGIN CERTIFICATE-----
MIID3jCCAsagAwIBAgIIAYTWpq7/XIkwDQYJKoZIhvcNAQELBQAwbzELMAkGA1UE
BhMCRVMxETAPBgNVBAgTCEFTVFVSSUFTMQ8wDQYDVQQHEwZBVklMRVMxEjAQBgNV
BAoTCUNBMDEtMjQyVjEoMCYGA1UEAxMfQ0EwMS0yNDJWIEF1dGhvcml0eSBDZXJ0
aWZpY2F0ZTAeFw0yNjA1MDExMTA5NDlaFw0zNjA0MjgxMDQzNThaMHIxCzAJBgNV
BAYTAkVTMREwDwYDVQQIEwhBU1RVUklBUzEPMA0GA1UEBxMGQVZJTEVTMRIwEAYD
VQQKEwlDQTAxLTI0MlYxKzApBgNVBAMTImludmVudGFyaW8uYXNpLTI0MnYuY2lm
cGF2aWxlcy5jb20wggEiMA0GCSqGSIb3DQEBAQUAA4IBDwAwggEKAoIBAQDrM/vn
Uzf2037GEVkqAmceK/dQX+cJ3eQZborNx5rKkL6oKJMUFI8aR2i5HflLlXJY3xfp
X3KLqpltoslgzRG+SiwMfFfDOlIptWPDDN6t7bNGutryi0jcto+YoC3oWg3HZ8xu
T/FWawlivDq72ge7kw7Gw168jqxrN7m+yWwuw+f1bgWOJ3ajLPp95KMuLYJ7N/se
AgiB2ZUnBAt0Zi/uSFISWb1M5iJj4vU3tExV702DgxP7zNcU4bxakB2gl3XYKEdM
ia5HQxrjvW1iRRsPe3I6GpFuugJ0L56FjIyVfoEQxPGkLb7VktYxwrGAMDPwLxHb
XGw22FM0s3nbpGAXAgMBAAGjezB5MB8GA1UdIwQYMBaAFMOVYeqPIHp9/62QRLU6
OB4Ln1R0MB0GA1UdDgQWBBQQty74eIPWpU5YD+ckUyuJfL298jAsBglghkgBhvhC
AQ0EHxYdT3BlblNTTCBHZW5lcmF0ZWQgQ2VydGlmaWNhdGUwCQYDVR0TBAIwADAN
BgkqhkiG9w0BAQsFAAOCAQEAQbyupdAotwy8KMHWQ6LIFhmP8gtPQm8dgHo8Deux
MYU4pxWD1GT7tUZc0LSb90xOOAROyJZHPDe1LmkTgM6nxL1c4PsVRFs9wmi0kzdr
0uJzPRdIRtNmL/QTnS1VMRasTbYdDYWPFatv7+cnKzNvVnzNTWxRiRlvM/z5jGGW
VGmuYI4AQlGd1BSHKwIV7GrCwAJwMzsfCkL3tkDXsuDl4EGTkBySmSEicO4pn8RN
hTM+scWtVxClCKAWnC6hygPa0HAckFOc1sFm5NfEXLoWMtibdaSSAnxiMRz5CDqS
zPDUeHe1YlY0OYaDx4S8+dc7d9oNymZxwTin0ScBLZBZUw==
-----END CERTIFICATE-----

-----BEGIN CERTIFICATE-----
MIIENDCCAxygAwIBAgIIAYTWpq7/XIIwDQYJKoZIhvcNAQELBQAwbzELMAkGA1UE
BhMCRVMxETAPBgNVBAgTCEFTVFVSSUFTMQ8wDQYDVQQHEwZBVklMRVMxEjAQBgNV
BAoTCUNBMDEtMjQyVjEoMCYGA1UEAxMfQ0EwMS0yNDJWIEF1dGhvcml0eSBDZXJ0
aWZpY2F0ZTAeFw0yNjA1MDExMDQzNThaFw0zNjA0MjgxMDQzNThaMG8xCzAJBgNV
BAYTAkVTMREwDwYDVQQIEwhBU1RVUklBUzEPMA0GA1UEBxMGQVZJTEVTMRIwEAYD
VQQKEwlDQTAxLTI0MlYxKDAmBgNVBAMTH0NBMDEtMjQyViBBdXRob3JpdHkgQ2Vy
dGlmaWNhdGUwggEiMA0GCSqGSIb3DQEBAQUAA4IBDwAwggEKAoIBAQDM3iIRF6mZ
fUclvQo6MF/IYSN2jFjUzE1FzRhqN0ydpu2ELsWrmG8jSN8qgzzECtMXP+exkZEm
XekspF9w65WtygUGyi6AiOBIP7ugeS6qDr55LHrJsbXIxG3FY6e4WY3PwXezjUNG
px8R9JvqAPRuFzZ5IVaNYSLbggriHIRAuPstXk/ntQbiZnGXFwaV6yeTGKw1tCs+
XsKmUfzSPMPCKOLilmNBUY3HEg/Q+WWS/mx8oe/Kk5QS+ZkEtwc2q0tcS5GvJUjh
VYOrS/HeMGHBl8K54xEA3+mIbOXcyHnsvJ4rGWPizoROtoWj83Otg/Ycsp4UuRcK
eDkJzEq5soYBAgMBAAGjgdMwgdAwHQYDVR0OBBYEFMOVYeqPIHp9/62QRLU6OB4L
n1R0MIGgBgNVHSMEgZgwgZWAFMOVYeqPIHp9/62QRLU6OB4Ln1R0oXOkcTBvMQsw
CQYDVQQGEwJFUzERMA8GA1UECBMIQVNUVVJJQVMxDzANBgNVBAcTBkFWSUxFUzES
MBAGA1UEChMJQ0EwMS0yNDJWMSgwJgYDVQQDEx9DQTAxLTI0MlYgQXV0aG9yaXR5
IENlcnRpZmljYXRlgggBhNamrv9cgjAMBgNVHRMEBTADAQH/MA0GCSqGSIb3DQEB
CwUAA4IBAQAs8UtsfKpNvR4fBcoXYxzFfhOGE0gO/gDlseLy2sAytXqZLFwfDY6f
wocsqfANNo9WEMNuTkil3up8hsFgLR5PLwNFN6hWM+/zlajCK9Jb09u0Qa3so2Yb
oKnbXuCo2aISSq2fr+yIcj5OB6g3z0cV8Sh+4b0w5eGWWO6tyutmwkGixq/kGY76
sER4GVPfXDMX2DXDWf7XK1t2KTE74eBI6tKu0oPLkMirVzf15LdZdNnqS7OKREXt
16QLCNftZfGlts00aszuDcBGrQFsccFTNtmjwb3sbSywjPpa+2w3eGp4SuS15BfV
ija+hDAfFmTphuKE5bS29STAIYAXPyGf
-----END CERTIFICATE-----
