Certificate:
    Data:
        Version: 3 (0x2)
        Serial Number: 109448302352620678 (0x184d6a6aeff5c86)
    Signature Algorithm: sha256WithRSAEncryption
        Issuer: C=ES, ST=ASTURIAS, L=AVILES, O=CA01-242V, CN=CA01-242V Authority Certificate
        Validity
            Not Before: May  1 11:09:23 2026 GMT
            Not After : Apr 28 10:43:58 2036 GMT
        Subject: C=ES, ST=ASTURIAS, L=AVILES, O=CA01-242V, CN=asi-242v.cifpaviles.com
        Subject Public Key Info:
            Public Key Algorithm: rsaEncryption
                Public-Key: (2048 bit)
                Modulus:
                    00:e2:98:d4:d8:8f:a5:89:75:f2:64:91:0e:dc:96:
                    ea:c9:1b:9b:e7:2d:4e:cb:f1:a5:27:09:67:df:cd:
                    63:01:f5:85:03:c6:49:b8:f1:eb:7b:8c:40:46:c3:
                    a4:6b:cb:fc:5e:40:eb:68:58:d9:be:e6:02:fa:ce:
                    0c:ca:8c:53:9d:26:c0:53:cc:92:02:6e:d9:be:44:
                    dc:d8:2d:ee:fb:f2:9a:25:1a:73:10:03:5b:97:93:
                    15:8b:91:f9:9b:10:23:5b:90:34:53:e0:96:e9:aa:
                    08:d3:88:b7:14:36:90:93:85:53:04:ed:d9:76:61:
                    2f:5b:33:3e:1e:0c:47:37:57:82:10:f3:2a:d7:08:
                    03:d5:c2:13:24:0e:dd:be:17:b5:05:c6:83:c3:ae:
                    1a:c7:a3:b0:8b:34:1e:a4:c5:fc:08:ae:7a:c7:c5:
                    90:6e:2a:f9:ae:af:c3:51:29:e3:5e:05:0e:34:18:
                    1a:57:b8:d0:8b:11:79:9c:7c:e9:41:17:1a:c2:40:
                    22:d6:ae:53:2b:c5:be:c6:68:d1:f7:89:40:01:e9:
                    e1:c6:b8:1d:0a:b1:49:8d:44:eb:f4:b3:40:58:72:
                    e8:9c:25:a3:01:00:e2:bc:24:af:0a:64:45:b6:ec:
                    e9:98:9d:98:34:20:77:da:fd:9e:1d:fd:17:08:2c:
                    b6:d3
                Exponent: 65537 (0x10001)
        X509v3 extensions:
            X509v3 Authority Key Identifier: 
                keyid:C3:95:61:EA:8F:20:7A:7D:FF:AD:90:44:B5:3A:38:1E:0B:9F:54:74

            X509v3 Subject Key Identifier: 
                A4:A7:39:B1:05:99:7D:2B:CC:23:19:F3:44:11:44:F5:AB:08:32:CC
            Netscape Comment: 
                OpenSSL Generated Certificate
            X509v3 Basic Constraints: 
                CA:FALSE
    Signature Algorithm: sha256WithRSAEncryption
         71:08:72:33:22:c7:34:8d:60:46:25:b4:1e:33:45:08:0d:9a:
         48:c3:31:1c:1d:e5:ce:0d:78:ad:c5:68:ae:24:66:10:89:33:
         86:fd:b3:0e:3c:e7:07:46:b5:bc:c2:7d:af:15:d5:f1:37:96:
         95:ec:fd:7c:74:7c:2c:a0:07:f8:25:93:a1:b3:5f:f0:80:81:
         bf:51:60:c5:16:2a:44:b9:b7:19:86:53:b8:7c:e5:28:38:e7:
         db:2d:55:ed:44:8d:ce:3f:43:9f:2c:11:a4:26:70:82:26:ab:
         06:63:6d:6e:9e:6a:d8:e6:37:4d:90:2c:81:0e:cc:03:de:f3:
         fb:a7:ed:23:4a:f1:21:28:e4:4a:52:04:db:17:0e:06:ce:09:
         dc:95:c0:34:f7:12:bc:b1:19:13:a4:26:ff:08:64:84:99:15:
         09:27:e9:84:dd:64:8a:b5:4f:64:c9:44:ae:b8:7b:3b:4a:aa:
         aa:a7:67:5e:29:4f:7e:5b:c0:c3:2b:ff:7a:46:d9:68:a3:3d:
         e3:29:2c:1a:d4:dc:96:d1:5b:d4:06:3f:f8:b2:f0:3d:c5:49:
         15:9f:47:c6:7a:2d:f6:ec:b4:3c:03:a6:63:97:1d:d5:79:92:
         17:de:a7:42:eb:bf:d0:33:16:53:8c:4e:86:d2:18:68:79:7c:
         72:31:90:76
-----BEGIN CERTIFICATE-----
MIID0zCCArugAwIBAgIIAYTWpq7/XIYwDQYJKoZIhvcNAQELBQAwbzELMAkGA1UE
BhMCRVMxETAPBgNVBAgTCEFTVFVSSUFTMQ8wDQYDVQQHEwZBVklMRVMxEjAQBgNV
BAoTCUNBMDEtMjQyVjEoMCYGA1UEAxMfQ0EwMS0yNDJWIEF1dGhvcml0eSBDZXJ0
aWZpY2F0ZTAeFw0yNjA1MDExMTA5MjNaFw0zNjA0MjgxMDQzNThaMGcxCzAJBgNV
BAYTAkVTMREwDwYDVQQIEwhBU1RVUklBUzEPMA0GA1UEBxMGQVZJTEVTMRIwEAYD
VQQKEwlDQTAxLTI0MlYxIDAeBgNVBAMTF2FzaS0yNDJ2LmNpZnBhdmlsZXMuY29t
MIIBIjANBgkqhkiG9w0BAQEFAAOCAQ8AMIIBCgKCAQEA4pjU2I+liXXyZJEO3Jbq
yRub5y1Oy/GlJwln381jAfWFA8ZJuPHre4xARsOka8v8XkDraFjZvuYC+s4MyoxT
nSbAU8ySAm7ZvkTc2C3u+/KaJRpzEANbl5MVi5H5mxAjW5A0U+CW6aoI04i3FDaQ
k4VTBO3ZdmEvWzM+HgxHN1eCEPMq1wgD1cITJA7dvhe1BcaDw64ax6OwizQepMX8
CK56x8WQbir5rq/DUSnjXgUONBgaV7jQixF5nHzpQRcawkAi1q5TK8W+xmjR94lA
AenhxrgdCrFJjUTr9LNAWHLonCWjAQDivCSvCmRFtuzpmJ2YNCB32v2eHf0XCCy2
0wIDAQABo3sweTAfBgNVHSMEGDAWgBTDlWHqjyB6ff+tkES1OjgeC59UdDAdBgNV
HQ4EFgQUpKc5sQWZfSvMIxnzRBFE9asIMswwLAYJYIZIAYb4QgENBB8WHU9wZW5T
U0wgR2VuZXJhdGVkIENlcnRpZmljYXRlMAkGA1UdEwQCMAAwDQYJKoZIhvcNAQEL
BQADggEBAHEIcjMixzSNYEYltB4zRQgNmkjDMRwd5c4NeK3FaK4kZhCJM4b9sw48
5wdGtbzCfa8V1fE3lpXs/Xx0fCygB/glk6GzX/CAgb9RYMUWKkS5txmGU7h85Sg4
59stVe1Ejc4/Q58sEaQmcIImqwZjbW6eatjmN02QLIEOzAPe8/un7SNK8SEo5EpS
BNsXDgbOCdyVwDT3EryxGROkJv8IZISZFQkn6YTdZIq1T2TJRK64eztKqqqnZ14p
T35bwMMr/3pG2WijPeMpLBrU3JbRW9QGP/iy8D3FSRWfR8Z6LfbstDwDpmOXHdV5
khfep0Lrv9AzFlOMTobSGGh5fHIxkHY=
-----END CERTIFICATE-----

-----BEGIN CERTIFICATE-----
MIIENDCCAxygAwIBAgIIAYTWpq7/XIIwDQYJKoZIhvcNAQELBQAwbzELMAkGA1UE
BhMCRVMxETAPBgNVBAgTCEFTVFVSSUFTMQ8wDQYDVQQHEwZBVklMRVMxEjAQBgNV
BAoTCUNBMDEtMjQyVjEoMCYGA1UEAxMfQ0EwMS0yNDJWIEF1dGhvcml0eSBDZXJ0
aWZpY2F0ZTAeFw0yNjA1MDExMDQzNThaFw0zNjA0MjgxMDQzNThaMG8xCzAJBgNV
BAYTAkVTMREwDwYDVQQIEwhBU1RVUklBUzEPMA0GA1UEBxMGQVZJTEVTMRIwEAYD
VQQKEwlDQTAxLTI0MlYxKDAmBgNVBAMTH0NBMDEtMjQyViBBdXRob3JpdHkgQ2Vy
dGlmaWNhdGUwggEiMA0GCSqGSIb3DQEBAQUAA4IBDwAwggEKAoIBAQDM3iIRF6mZ
fUclvQo6MF/IYSN2jFjUzE1FzRhqN0ydpu2ELsWrmG8jSN8qgzzECtMXP+exkZEm
XekspF9w65WtygUGyi6AiOBIP7ugeS6qDr55LHrJsbXIxG3FY6e4WY3PwXezjUNG
px8R9JvqAPRuFzZ5IVaNYSLbggriHIRAuPstXk/ntQbiZnGXFwaV6yeTGKw1tCs+
XsKmUfzSPMPCKOLilmNBUY3HEg/Q+WWS/mx8oe/Kk5QS+ZkEtwc2q0tcS5GvJUjh
VYOrS/HeMGHBl8K54xEA3+mIbOXcyHnsvJ4rGWPizoROtoWj83Otg/Ycsp4UuRcK
eDkJzEq5soYBAgMBAAGjgdMwgdAwHQYDVR0OBBYEFMOVYeqPIHp9/62QRLU6OB4L
n1R0MIGgBgNVHSMEgZgwgZWAFMOVYeqPIHp9/62QRLU6OB4Ln1R0oXOkcTBvMQsw
CQYDVQQGEwJFUzERMA8GA1UECBMIQVNUVVJJQVMxDzANBgNVBAcTBkFWSUxFUzES
MBAGA1UEChMJQ0EwMS0yNDJWMSgwJgYDVQQDEx9DQTAxLTI0MlYgQXV0aG9yaXR5
IENlcnRpZmljYXRlgggBhNamrv9cgjAMBgNVHRMEBTADAQH/MA0GCSqGSIb3DQEB
CwUAA4IBAQAs8UtsfKpNvR4fBcoXYxzFfhOGE0gO/gDlseLy2sAytXqZLFwfDY6f
wocsqfANNo9WEMNuTkil3up8hsFgLR5PLwNFN6hWM+/zlajCK9Jb09u0Qa3so2Yb
oKnbXuCo2aISSq2fr+yIcj5OB6g3z0cV8Sh+4b0w5eGWWO6tyutmwkGixq/kGY76
sER4GVPfXDMX2DXDWf7XK1t2KTE74eBI6tKu0oPLkMirVzf15LdZdNnqS7OKREXt
16QLCNftZfGlts00aszuDcBGrQFsccFTNtmjwb3sbSywjPpa+2w3eGp4SuS15BfV
ija+hDAfFmTphuKE5bS29STAIYAXPyGf
-----END CERTIFICATE-----
