Certificate:
    Data:
        Version: 3 (0x2)
        Serial Number:
            d3:d7:bc:cd:93:f3:4b:90
    Signature Algorithm: sha256WithRSAEncryption
        Issuer: C=ES, ST=ASTURIAS, L=AVILES, O=CA01-24, CN=CA01-24 Authority Certificate
        Validity
            Not Before: Apr 29 09:39:48 2026 GMT
            Not After : Mar 12 11:39:48 2036 GMT
        Subject: C=ES, ST=ASTURIAS, L=AVILES, O=CA01-24, CN=wordpress.asi-242v.cifpaviles.com
        Subject Public Key Info:
            Public Key Algorithm: rsaEncryption
                Public-Key: (2048 bit)
                Modulus:
                    00:c0:f7:bc:38:52:6b:01:0c:48:8d:37:dd:54:d2:
                    74:c5:1b:6b:8b:98:ae:c2:36:5c:7f:ea:5b:cc:9f:
                    ef:e9:27:54:4e:d2:de:ea:91:0f:6a:0e:b2:6e:11:
                    2e:98:6a:6f:c0:98:ca:70:a3:c9:4f:ca:bb:f7:52:
                    d1:95:55:62:d8:6c:f4:d6:62:83:f5:f8:df:7a:85:
                    9b:2b:e9:19:90:a3:2e:7f:0d:e2:82:6b:61:79:76:
                    e0:d7:d6:1a:9e:24:76:44:ca:a4:cc:b2:4a:9e:39:
                    46:a8:f5:8e:35:e4:6f:21:f6:2c:02:66:6b:09:a8:
                    66:58:f8:27:5b:87:81:ba:91:34:ab:5f:00:2c:f0:
                    85:2e:6a:7c:c9:92:f2:a0:e7:79:bb:4e:23:a7:cb:
                    58:0b:15:80:9f:8a:2b:b6:c9:4f:14:58:89:6b:23:
                    21:47:bc:12:77:fd:dd:15:0f:ad:85:22:e8:20:05:
                    f9:f2:eb:3f:ff:43:24:b8:3d:74:23:59:33:10:f7:
                    84:11:48:50:e6:67:82:1a:bb:20:b3:87:1f:8c:50:
                    e5:2d:20:74:e3:30:76:65:fd:da:72:d1:1e:1b:a9:
                    f8:76:db:14:78:3a:19:8b:b8:be:78:4f:ec:14:77:
                    16:e9:34:ee:4f:4d:0e:b8:27:08:cd:06:88:24:06:
                    08:e1
                Exponent: 65537 (0x10001)
        X509v3 extensions:
            X509v3 Authority Key Identifier: 
                keyid:58:E9:57:EF:4E:C4:B4:57:2B:BB:F2:10:43:5F:4E:A5:22:19:DF:51

            X509v3 Subject Key Identifier: 
                D0:1C:BF:B7:B3:CD:9C:75:7E:4D:3E:6E:AE:98:6E:0E:FC:81:4E:6D
            Netscape Comment: 
                OpenSSL Generated Certificate
            X509v3 Basic Constraints: 
                CA:FALSE
    Signature Algorithm: sha256WithRSAEncryption
         3e:99:69:43:2b:53:e2:50:02:9d:a1:b2:22:87:d1:ea:05:cc:
         cf:1e:92:0d:21:6f:2a:d8:77:38:10:b1:67:4e:75:24:a0:f2:
         33:2b:23:61:70:7c:bc:5d:dc:ba:50:f8:3e:8e:48:bb:62:ba:
         f4:b1:15:1c:eb:09:64:a7:65:14:61:41:4b:ff:71:a7:c3:88:
         23:5b:ff:7d:7c:db:1f:39:2c:4c:5a:b6:6f:06:a7:33:21:68:
         30:61:e5:e5:2b:2b:57:3b:a3:d4:bd:9d:a4:6e:ea:9a:95:d8:
         54:a1:88:03:1b:64:39:e6:2d:1f:b7:e8:ab:a7:41:db:d5:6a:
         70:fe:6c:09:b3:c2:a0:08:5d:2c:6a:83:4b:d3:2e:1d:f3:bf:
         51:2d:a0:69:aa:f6:f2:f3:4d:78:d1:a1:46:0f:b0:d9:99:d7:
         a2:f0:2c:5e:4a:65:0f:f5:0a:94:a7:b6:c1:b0:95:36:99:ee:
         7d:11:ce:4d:a7:c6:92:5b:4d:9c:e8:fd:38:94:ee:d7:a1:38:
         93:75:4c:8f:f0:65:c5:72:f5:1a:62:51:d2:ab:42:be:c4:76:
         f8:77:44:7f:dd:96:5f:3f:ad:a7:f2:ad:f5:e5:69:b5:b6:8d:
         f0:c0:68:25:26:b5:20:f0:b5:84:8e:03:cc:f0:d0:7c:b3:72:
         59:fe:3f:6d
-----BEGIN CERTIFICATE-----
MIID2DCCAsCgAwIBAgIJANPXvM2T80uQMA0GCSqGSIb3DQEBCwUAMGsxCzAJBgNV
BAYTAkVTMREwDwYDVQQIEwhBU1RVUklBUzEPMA0GA1UEBxMGQVZJTEVTMRAwDgYD
VQQKEwdDQTAxLTI0MSYwJAYDVQQDEx1DQTAxLTI0IEF1dGhvcml0eSBDZXJ0aWZp
Y2F0ZTAeFw0yNjA0MjkwOTM5NDhaFw0zNjAzMTIxMTM5NDhaMG8xCzAJBgNVBAYT
AkVTMREwDwYDVQQIEwhBU1RVUklBUzEPMA0GA1UEBxMGQVZJTEVTMRAwDgYDVQQK
EwdDQTAxLTI0MSowKAYDVQQDEyF3b3JkcHJlc3MuYXNpLTI0MnYuY2lmcGF2aWxl
cy5jb20wggEiMA0GCSqGSIb3DQEBAQUAA4IBDwAwggEKAoIBAQDA97w4UmsBDEiN
N91U0nTFG2uLmK7CNlx/6lvMn+/pJ1RO0t7qkQ9qDrJuES6Yam/AmMpwo8lPyrv3
UtGVVWLYbPTWYoP1+N96hZsr6RmQoy5/DeKCa2F5duDX1hqeJHZEyqTMskqeOUao
9Y415G8h9iwCZmsJqGZY+Cdbh4G6kTSrXwAs8IUuanzJkvKg53m7TiOny1gLFYCf
iiu2yU8UWIlrIyFHvBJ3/d0VD62FIuggBfny6z//QyS4PXQjWTMQ94QRSFDmZ4Ia
uyCzhx+MUOUtIHTjMHZl/dpy0R4bqfh22xR4OhmLuL54T+wUdxbpNO5PTQ64JwjN
BogkBgjhAgMBAAGjezB5MB8GA1UdIwQYMBaAFFjpV+9OxLRXK7vyEENfTqUiGd9R
MB0GA1UdDgQWBBTQHL+3s82cdX5NPm6umG4O/IFObTAsBglghkgBhvhCAQ0EHxYd
T3BlblNTTCBHZW5lcmF0ZWQgQ2VydGlmaWNhdGUwCQYDVR0TBAIwADANBgkqhkiG
9w0BAQsFAAOCAQEAPplpQytT4lACnaGyIofR6gXMzx6SDSFvKth3OBCxZ051JKDy
MysjYXB8vF3culD4Po5Iu2K69LEVHOsJZKdlFGFBS/9xp8OII1v/fXzbHzksTFq2
bwanMyFoMGHl5SsrVzuj1L2dpG7qmpXYVKGIAxtkOeYtH7foq6dB29VqcP5sCbPC
oAhdLGqDS9MuHfO/US2gaar28vNNeNGhRg+w2ZnXovAsXkplD/UKlKe2wbCVNpnu
fRHOTafGkltNnOj9OJTu16E4k3VMj/BlxXL1GmJR0qtCvsR2+HdEf92WXz+tp/Kt
9eVptbaN8MBoJSa1IPC1hI4DzPDQfLNyWf4/bQ==
-----END CERTIFICATE-----

Bag Attributes
    localKeyID: 5D FB A3 74 BF 22 71 5F A2 E1 08 C7 2F BA 34 26 35 3C D9 3C 
    friendlyName: wordpress.asi-242v.cifpaviles.com
subject=C = ES, ST = ASTURIAS, L = AVILES, O = CA01-24, CN = wordpress.asi-242v.cifpaviles.com
issuer=C = ES, ST = ASTURIAS, L = AVILES, O = CA01-24, CN = CA01-24 Authority Certificate
-----BEGIN CERTIFICATE-----
MIID2DCCAsCgAwIBAgIJANPXvM2T80uQMA0GCSqGSIb3DQEBCwUAMGsxCzAJBgNV
BAYTAkVTMREwDwYDVQQIEwhBU1RVUklBUzEPMA0GA1UEBxMGQVZJTEVTMRAwDgYD
VQQKEwdDQTAxLTI0MSYwJAYDVQQDEx1DQTAxLTI0IEF1dGhvcml0eSBDZXJ0aWZp
Y2F0ZTAeFw0yNjA0MjkwOTM5NDhaFw0zNjAzMTIxMTM5NDhaMG8xCzAJBgNVBAYT
AkVTMREwDwYDVQQIEwhBU1RVUklBUzEPMA0GA1UEBxMGQVZJTEVTMRAwDgYDVQQK
EwdDQTAxLTI0MSowKAYDVQQDEyF3b3JkcHJlc3MuYXNpLTI0MnYuY2lmcGF2aWxl
cy5jb20wggEiMA0GCSqGSIb3DQEBAQUAA4IBDwAwggEKAoIBAQDA97w4UmsBDEiN
N91U0nTFG2uLmK7CNlx/6lvMn+/pJ1RO0t7qkQ9qDrJuES6Yam/AmMpwo8lPyrv3
UtGVVWLYbPTWYoP1+N96hZsr6RmQoy5/DeKCa2F5duDX1hqeJHZEyqTMskqeOUao
9Y415G8h9iwCZmsJqGZY+Cdbh4G6kTSrXwAs8IUuanzJkvKg53m7TiOny1gLFYCf
iiu2yU8UWIlrIyFHvBJ3/d0VD62FIuggBfny6z//QyS4PXQjWTMQ94QRSFDmZ4Ia
uyCzhx+MUOUtIHTjMHZl/dpy0R4bqfh22xR4OhmLuL54T+wUdxbpNO5PTQ64JwjN
BogkBgjhAgMBAAGjezB5MB8GA1UdIwQYMBaAFFjpV+9OxLRXK7vyEENfTqUiGd9R
MB0GA1UdDgQWBBTQHL+3s82cdX5NPm6umG4O/IFObTAsBglghkgBhvhCAQ0EHxYd
T3BlblNTTCBHZW5lcmF0ZWQgQ2VydGlmaWNhdGUwCQYDVR0TBAIwADANBgkqhkiG
9w0BAQsFAAOCAQEAPplpQytT4lACnaGyIofR6gXMzx6SDSFvKth3OBCxZ051JKDy
MysjYXB8vF3culD4Po5Iu2K69LEVHOsJZKdlFGFBS/9xp8OII1v/fXzbHzksTFq2
bwanMyFoMGHl5SsrVzuj1L2dpG7qmpXYVKGIAxtkOeYtH7foq6dB29VqcP5sCbPC
oAhdLGqDS9MuHfO/US2gaar28vNNeNGhRg+w2ZnXovAsXkplD/UKlKe2wbCVNpnu
fRHOTafGkltNnOj9OJTu16E4k3VMj/BlxXL1GmJR0qtCvsR2+HdEf92WXz+tp/Kt
9eVptbaN8MBoJSa1IPC1hI4DzPDQfLNyWf4/bQ==
-----END CERTIFICATE-----
