Certificate:
    Data:
        Version: 3 (0x2)
        Serial Number:
            d3:d7:bc:cd:93:f3:4b:91
    Signature Algorithm: sha256WithRSAEncryption
        Issuer: C=ES, ST=ASTURIAS, L=AVILES, O=CA01-24, CN=CA01-24 Authority Certificate
        Validity
            Not Before: Apr 29 09:39:58 2026 GMT
            Not After : Mar 12 11:39:57 2036 GMT
        Subject: C=ES, ST=ASTURIAS, L=AVILES, O=CA01-24, CN=asi-242v.cifpaviles.com
        Subject Public Key Info:
            Public Key Algorithm: rsaEncryption
                Public-Key: (2048 bit)
                Modulus:
                    00:e8:8a:4c:5b:67:3f:c4:db:c4:cc:1e:45:67:74:
                    9b:02:0f:82:25:1e:09:aa:8b:38:0e:da:72:99:e7:
                    4f:c8:f2:ca:17:08:86:86:bf:3f:5a:e1:d6:c7:28:
                    21:23:1b:b3:76:24:a4:5e:7b:53:8e:31:02:75:84:
                    f9:3e:3c:6a:54:31:10:df:30:96:fa:5d:f5:bb:32:
                    9e:0b:f2:24:69:59:94:03:8a:92:0e:64:ee:b5:ef:
                    8d:16:de:3b:fc:6b:03:40:5b:60:aa:f1:86:4a:be:
                    75:c6:e8:39:54:c1:3d:af:08:e7:53:a4:8e:69:5f:
                    2a:76:9f:b5:83:28:3d:9f:a0:fe:b9:08:00:5e:e5:
                    8b:bb:49:02:00:3b:db:14:0c:6c:fb:a4:20:61:fc:
                    a5:01:bf:42:26:d9:35:3a:69:e0:df:b7:61:49:86:
                    4d:c7:da:80:9d:db:c3:17:88:f2:48:b2:e6:fd:98:
                    c1:cf:fd:1c:ab:e1:01:60:a2:49:1e:24:b1:21:0d:
                    4a:2d:29:56:23:01:6f:a0:20:aa:7c:d6:3c:33:b8:
                    18:8c:30:c4:20:ea:10:cc:42:ca:31:82:33:2f:33:
                    58:29:04:91:ac:79:61:72:a7:22:ba:17:fa:4f:e8:
                    bc:44:10:9c:a1:f3:60:2d:d7:fa:30:d4:bf:0d:fb:
                    89:7b
                Exponent: 65537 (0x10001)
        X509v3 extensions:
            X509v3 Authority Key Identifier: 
                keyid:58:E9:57:EF:4E:C4:B4:57:2B:BB:F2:10:43:5F:4E:A5:22:19:DF:51

            X509v3 Subject Key Identifier: 
                7E:9F:55:5A:A4:FD:45:06:AD:6D:80:93:CF:8C:25:F0:F5:9D:24:35
            Netscape Comment: 
                OpenSSL Generated Certificate
            X509v3 Basic Constraints: 
                CA:FALSE
    Signature Algorithm: sha256WithRSAEncryption
         01:e7:aa:bc:35:7a:a9:69:3e:d0:5c:18:63:70:89:c6:c6:7d:
         62:98:1d:51:33:5a:3d:f9:f9:c2:95:c2:ea:8f:9b:c5:46:84:
         bf:97:47:a0:a0:9f:bb:0e:67:9b:d9:6f:7e:c2:93:04:b7:1f:
         01:c6:f0:7a:44:2a:14:b4:1c:81:d4:1e:7d:d2:f0:8e:5f:65:
         5f:7d:7b:f3:07:aa:b1:0d:d1:6a:10:d5:e2:fc:f3:87:b0:b1:
         06:21:b1:52:0d:e2:cd:9e:27:cb:8c:06:25:46:f4:b5:62:10:
         8e:d6:38:28:fe:e3:5f:f7:f8:34:26:a3:c3:ef:8e:c7:ee:6f:
         12:a2:eb:a5:bc:9b:1d:8d:bc:20:08:d3:e7:16:aa:ec:9e:1d:
         32:62:a6:f8:2f:00:cd:0c:fe:72:af:aa:6c:04:fb:3d:20:ae:
         0a:a0:b2:38:e6:f4:cc:ce:c0:01:47:10:70:18:a5:3d:78:c1:
         94:8e:8b:3b:08:9c:15:31:dc:90:4b:ca:ee:03:de:a0:0a:5c:
         a4:4a:7c:de:d4:8f:cf:22:45:cd:f9:b3:61:f9:e0:10:36:40:
         89:32:75:9d:40:ca:ac:8e:f6:6f:d1:5c:86:ba:c6:f0:b1:7c:
         26:b3:46:2e:ec:05:c0:45:51:69:f8:5d:0e:f9:3f:31:79:12:
         92:72:01:db
-----BEGIN CERTIFICATE-----
MIIDzjCCAragAwIBAgIJANPXvM2T80uRMA0GCSqGSIb3DQEBCwUAMGsxCzAJBgNV
BAYTAkVTMREwDwYDVQQIEwhBU1RVUklBUzEPMA0GA1UEBxMGQVZJTEVTMRAwDgYD
VQQKEwdDQTAxLTI0MSYwJAYDVQQDEx1DQTAxLTI0IEF1dGhvcml0eSBDZXJ0aWZp
Y2F0ZTAeFw0yNjA0MjkwOTM5NThaFw0zNjAzMTIxMTM5NTdaMGUxCzAJBgNVBAYT
AkVTMREwDwYDVQQIEwhBU1RVUklBUzEPMA0GA1UEBxMGQVZJTEVTMRAwDgYDVQQK
EwdDQTAxLTI0MSAwHgYDVQQDExdhc2ktMjQydi5jaWZwYXZpbGVzLmNvbTCCASIw
DQYJKoZIhvcNAQEBBQADggEPADCCAQoCggEBAOiKTFtnP8TbxMweRWd0mwIPgiUe
CaqLOA7acpnnT8jyyhcIhoa/P1rh1scoISMbs3YkpF57U44xAnWE+T48alQxEN8w
lvpd9bsyngvyJGlZlAOKkg5k7rXvjRbeO/xrA0BbYKrxhkq+dcboOVTBPa8I51Ok
jmlfKnaftYMoPZ+g/rkIAF7li7tJAgA72xQMbPukIGH8pQG/QibZNTpp4N+3YUmG
TcfagJ3bwxeI8kiy5v2Ywc/9HKvhAWCiSR4ksSENSi0pViMBb6AgqnzWPDO4GIww
xCDqEMxCyjGCMy8zWCkEkax5YXKnIroX+k/ovEQQnKHzYC3X+jDUvw37iXsCAwEA
AaN7MHkwHwYDVR0jBBgwFoAUWOlX707EtFcru/IQQ19OpSIZ31EwHQYDVR0OBBYE
FH6fVVqk/UUGrW2Ak8+MJfD1nSQ1MCwGCWCGSAGG+EIBDQQfFh1PcGVuU1NMIEdl
bmVyYXRlZCBDZXJ0aWZpY2F0ZTAJBgNVHRMEAjAAMA0GCSqGSIb3DQEBCwUAA4IB
AQAB56q8NXqpaT7QXBhjcInGxn1imB1RM1o9+fnClcLqj5vFRoS/l0egoJ+7Dmeb
2W9+wpMEtx8BxvB6RCoUtByB1B590vCOX2VffXvzB6qxDdFqENXi/POHsLEGIbFS
DeLNnifLjAYlRvS1YhCO1jgo/uNf9/g0JqPD747H7m8SouulvJsdjbwgCNPnFqrs
nh0yYqb4LwDNDP5yr6psBPs9IK4KoLI45vTMzsABRxBwGKU9eMGUjos7CJwVMdyQ
S8ruA96gClykSnze1I/PIkXN+bNh+eAQNkCJMnWdQMqsjvZv0VyGusbwsXwms0Yu
7AXARVFp+F0O+T8xeRKScgHb
-----END CERTIFICATE-----

Bag Attributes
    localKeyID: CA 86 0E F4 3C B7 E5 A7 46 3C A3 C0 F2 27 8F BD 9F 2F 5A EF 
    friendlyName: asi-242v.cifpaviles.com
subject=C = ES, ST = ASTURIAS, L = AVILES, O = CA01-24, CN = asi-242v.cifpaviles.com
issuer=C = ES, ST = ASTURIAS, L = AVILES, O = CA01-24, CN = CA01-24 Authority Certificate
-----BEGIN CERTIFICATE-----
MIIDzjCCAragAwIBAgIJANPXvM2T80uRMA0GCSqGSIb3DQEBCwUAMGsxCzAJBgNV
BAYTAkVTMREwDwYDVQQIEwhBU1RVUklBUzEPMA0GA1UEBxMGQVZJTEVTMRAwDgYD
VQQKEwdDQTAxLTI0MSYwJAYDVQQDEx1DQTAxLTI0IEF1dGhvcml0eSBDZXJ0aWZp
Y2F0ZTAeFw0yNjA0MjkwOTM5NThaFw0zNjAzMTIxMTM5NTdaMGUxCzAJBgNVBAYT
AkVTMREwDwYDVQQIEwhBU1RVUklBUzEPMA0GA1UEBxMGQVZJTEVTMRAwDgYDVQQK
EwdDQTAxLTI0MSAwHgYDVQQDExdhc2ktMjQydi5jaWZwYXZpbGVzLmNvbTCCASIw
DQYJKoZIhvcNAQEBBQADggEPADCCAQoCggEBAOiKTFtnP8TbxMweRWd0mwIPgiUe
CaqLOA7acpnnT8jyyhcIhoa/P1rh1scoISMbs3YkpF57U44xAnWE+T48alQxEN8w
lvpd9bsyngvyJGlZlAOKkg5k7rXvjRbeO/xrA0BbYKrxhkq+dcboOVTBPa8I51Ok
jmlfKnaftYMoPZ+g/rkIAF7li7tJAgA72xQMbPukIGH8pQG/QibZNTpp4N+3YUmG
TcfagJ3bwxeI8kiy5v2Ywc/9HKvhAWCiSR4ksSENSi0pViMBb6AgqnzWPDO4GIww
xCDqEMxCyjGCMy8zWCkEkax5YXKnIroX+k/ovEQQnKHzYC3X+jDUvw37iXsCAwEA
AaN7MHkwHwYDVR0jBBgwFoAUWOlX707EtFcru/IQQ19OpSIZ31EwHQYDVR0OBBYE
FH6fVVqk/UUGrW2Ak8+MJfD1nSQ1MCwGCWCGSAGG+EIBDQQfFh1PcGVuU1NMIEdl
bmVyYXRlZCBDZXJ0aWZpY2F0ZTAJBgNVHRMEAjAAMA0GCSqGSIb3DQEBCwUAA4IB
AQAB56q8NXqpaT7QXBhjcInGxn1imB1RM1o9+fnClcLqj5vFRoS/l0egoJ+7Dmeb
2W9+wpMEtx8BxvB6RCoUtByB1B590vCOX2VffXvzB6qxDdFqENXi/POHsLEGIbFS
DeLNnifLjAYlRvS1YhCO1jgo/uNf9/g0JqPD747H7m8SouulvJsdjbwgCNPnFqrs
nh0yYqb4LwDNDP5yr6psBPs9IK4KoLI45vTMzsABRxBwGKU9eMGUjos7CJwVMdyQ
S8ruA96gClykSnze1I/PIkXN+bNh+eAQNkCJMnWdQMqsjvZv0VyGusbwsXwms0Yu
7AXARVFp+F0O+T8xeRKScgHb
-----END CERTIFICATE-----
