Certificate:
    Data:
        Version: 3 (0x2)
        Serial Number: 109448302352620680 (0x184d6a6aeff5c88)
    Signature Algorithm: sha256WithRSAEncryption
        Issuer: C=ES, ST=ASTURIAS, L=AVILES, O=CA01-242V, CN=CA01-242V Authority Certificate
        Validity
            Not Before: May  1 11:09:42 2026 GMT
            Not After : Apr 28 10:43:58 2036 GMT
        Subject: C=ES, ST=ASTURIAS, L=AVILES, O=CA01-242V, CN=wordpress.asi-242v.cifpaviles.com
        Subject Public Key Info:
            Public Key Algorithm: rsaEncryption
                Public-Key: (2048 bit)
                Modulus:
                    00:d7:af:2f:d6:4c:bf:98:c9:65:c9:57:24:48:39:
                    d5:e3:19:72:f7:cf:ee:ad:c6:2c:b1:84:8d:7d:6b:
                    54:10:c2:3b:72:34:b4:6f:e5:66:cf:b6:db:44:a6:
                    19:a1:70:24:5a:49:4f:9d:4b:17:8a:c2:a4:9d:e1:
                    e9:d7:35:92:d3:c3:ef:56:b8:a3:73:f5:fb:2a:ca:
                    24:72:5c:08:a8:d1:88:75:7e:2c:7a:1a:5a:2c:58:
                    fd:77:c3:11:6d:26:15:94:15:1f:07:f7:32:a6:67:
                    60:10:5b:64:95:3f:c1:f4:83:ef:59:13:49:69:05:
                    4a:d3:d9:e8:63:20:6d:03:f2:66:c1:fc:5c:9f:40:
                    fa:51:be:8d:fe:76:ee:6c:b2:7c:7e:29:bf:6d:54:
                    6a:d9:ff:b9:b0:b9:0c:28:24:ed:28:10:5f:76:36:
                    9e:a3:ef:a0:f0:85:40:e5:1f:f7:b3:23:83:13:32:
                    4c:c9:ca:ef:31:ff:a0:e3:a0:18:87:43:2f:1e:e9:
                    b5:cc:15:50:40:1c:5e:51:35:e8:6c:49:1f:c8:2d:
                    18:40:5e:c0:1d:8d:30:59:9c:a3:94:ad:f5:a5:a4:
                    9b:bc:ba:46:8a:2b:cb:a4:87:62:58:e4:8f:ff:f8:
                    bf:7f:fd:e6:a9:0b:f8:2d:49:e5:01:d2:54:ea:6c:
                    a9:75
                Exponent: 65537 (0x10001)
        X509v3 extensions:
            X509v3 Authority Key Identifier: 
                keyid:C3:95:61:EA:8F:20:7A:7D:FF:AD:90:44:B5:3A:38:1E:0B:9F:54:74

            X509v3 Subject Key Identifier: 
                01:2F:11:45:D4:98:13:E2:50:63:8D:64:FF:38:AD:B3:08:33:7F:35
            Netscape Comment: 
                OpenSSL Generated Certificate
            X509v3 Basic Constraints: 
                CA:FALSE
    Signature Algorithm: sha256WithRSAEncryption
         80:14:c2:9e:83:bc:b2:10:80:2a:8e:23:42:13:b7:5f:a2:dd:
         c5:d4:ea:e3:38:2a:f4:94:be:c0:4f:4c:32:60:ae:9c:b1:7b:
         8f:ab:d1:9c:f7:20:3e:03:1b:b0:2f:70:f1:68:49:0b:00:b3:
         2f:41:02:9c:78:df:e2:4a:f6:f5:b9:22:70:5e:1a:e3:06:29:
         4c:27:a2:5c:4b:81:56:a4:3e:56:ad:10:31:fa:c3:7b:a7:5d:
         f5:a6:f7:cf:db:c8:11:0c:03:43:67:5e:e3:d9:32:49:a9:c5:
         35:39:f8:e3:7a:37:37:48:00:ac:ae:39:6a:64:ec:fa:96:ce:
         b7:db:5c:60:87:37:b4:fa:25:cc:7d:22:ba:ff:dd:f4:f1:fa:
         bc:9f:17:69:83:4c:54:7d:e4:fd:27:b1:c5:5f:c3:e4:45:86:
         bc:a1:ae:b8:8c:6b:3c:13:85:a2:f9:59:c5:6a:96:e4:1d:69:
         8c:11:58:9e:18:96:7d:bb:5f:b5:41:4e:fb:48:6f:cd:31:00:
         18:51:0e:bf:c9:a1:f5:5c:44:6f:12:5b:19:ff:8d:4b:c2:cd:
         c3:8a:29:70:e3:60:5f:45:0e:3c:5d:62:cc:d7:56:eb:bf:ee:
         a7:6a:ce:4b:fa:c7:81:4e:f5:48:97:e5:21:ab:44:c8:a3:6d:
         af:04:a7:20
-----BEGIN CERTIFICATE-----
MIID3TCCAsWgAwIBAgIIAYTWpq7/XIgwDQYJKoZIhvcNAQELBQAwbzELMAkGA1UE
BhMCRVMxETAPBgNVBAgTCEFTVFVSSUFTMQ8wDQYDVQQHEwZBVklMRVMxEjAQBgNV
BAoTCUNBMDEtMjQyVjEoMCYGA1UEAxMfQ0EwMS0yNDJWIEF1dGhvcml0eSBDZXJ0
aWZpY2F0ZTAeFw0yNjA1MDExMTA5NDJaFw0zNjA0MjgxMDQzNThaMHExCzAJBgNV
BAYTAkVTMREwDwYDVQQIEwhBU1RVUklBUzEPMA0GA1UEBxMGQVZJTEVTMRIwEAYD
VQQKEwlDQTAxLTI0MlYxKjAoBgNVBAMTIXdvcmRwcmVzcy5hc2ktMjQydi5jaWZw
YXZpbGVzLmNvbTCCASIwDQYJKoZIhvcNAQEBBQADggEPADCCAQoCggEBANevL9ZM
v5jJZclXJEg51eMZcvfP7q3GLLGEjX1rVBDCO3I0tG/lZs+220SmGaFwJFpJT51L
F4rCpJ3h6dc1ktPD71a4o3P1+yrKJHJcCKjRiHV+LHoaWixY/XfDEW0mFZQVHwf3
MqZnYBBbZJU/wfSD71kTSWkFStPZ6GMgbQPyZsH8XJ9A+lG+jf527myyfH4pv21U
atn/ubC5DCgk7SgQX3Y2nqPvoPCFQOUf97MjgxMyTMnK7zH/oOOgGIdDLx7ptcwV
UEAcXlE16GxJH8gtGEBewB2NMFmco5St9aWkm7y6Roory6SHYljkj//4v3/95qkL
+C1J5QHSVOpsqXUCAwEAAaN7MHkwHwYDVR0jBBgwFoAUw5Vh6o8gen3/rZBEtTo4
HgufVHQwHQYDVR0OBBYEFAEvEUXUmBPiUGONZP84rbMIM381MCwGCWCGSAGG+EIB
DQQfFh1PcGVuU1NMIEdlbmVyYXRlZCBDZXJ0aWZpY2F0ZTAJBgNVHRMEAjAAMA0G
CSqGSIb3DQEBCwUAA4IBAQCAFMKeg7yyEIAqjiNCE7dfot3F1OrjOCr0lL7AT0wy
YK6csXuPq9Gc9yA+AxuwL3DxaEkLALMvQQKceN/iSvb1uSJwXhrjBilMJ6JcS4FW
pD5WrRAx+sN7p131pvfP28gRDANDZ17j2TJJqcU1Ofjjejc3SACsrjlqZOz6ls63
21xghze0+iXMfSK6/9308fq8nxdpg0xUfeT9J7HFX8PkRYa8oa64jGs8E4Wi+VnF
apbkHWmMEVieGJZ9u1+1QU77SG/NMQAYUQ6/yaH1XERvElsZ/41Lws3Diilw42Bf
RQ48XWLM11brv+6nas5L+seBTvVIl+Uhq0TIo22vBKcg
-----END CERTIFICATE-----

-----BEGIN CERTIFICATE-----
MIIENDCCAxygAwIBAgIIAYTWpq7/XIIwDQYJKoZIhvcNAQELBQAwbzELMAkGA1UE
BhMCRVMxETAPBgNVBAgTCEFTVFVSSUFTMQ8wDQYDVQQHEwZBVklMRVMxEjAQBgNV
BAoTCUNBMDEtMjQyVjEoMCYGA1UEAxMfQ0EwMS0yNDJWIEF1dGhvcml0eSBDZXJ0
aWZpY2F0ZTAeFw0yNjA1MDExMDQzNThaFw0zNjA0MjgxMDQzNThaMG8xCzAJBgNV
BAYTAkVTMREwDwYDVQQIEwhBU1RVUklBUzEPMA0GA1UEBxMGQVZJTEVTMRIwEAYD
VQQKEwlDQTAxLTI0MlYxKDAmBgNVBAMTH0NBMDEtMjQyViBBdXRob3JpdHkgQ2Vy
dGlmaWNhdGUwggEiMA0GCSqGSIb3DQEBAQUAA4IBDwAwggEKAoIBAQDM3iIRF6mZ
fUclvQo6MF/IYSN2jFjUzE1FzRhqN0ydpu2ELsWrmG8jSN8qgzzECtMXP+exkZEm
XekspF9w65WtygUGyi6AiOBIP7ugeS6qDr55LHrJsbXIxG3FY6e4WY3PwXezjUNG
px8R9JvqAPRuFzZ5IVaNYSLbggriHIRAuPstXk/ntQbiZnGXFwaV6yeTGKw1tCs+
XsKmUfzSPMPCKOLilmNBUY3HEg/Q+WWS/mx8oe/Kk5QS+ZkEtwc2q0tcS5GvJUjh
VYOrS/HeMGHBl8K54xEA3+mIbOXcyHnsvJ4rGWPizoROtoWj83Otg/Ycsp4UuRcK
eDkJzEq5soYBAgMBAAGjgdMwgdAwHQYDVR0OBBYEFMOVYeqPIHp9/62QRLU6OB4L
n1R0MIGgBgNVHSMEgZgwgZWAFMOVYeqPIHp9/62QRLU6OB4Ln1R0oXOkcTBvMQsw
CQYDVQQGEwJFUzERMA8GA1UECBMIQVNUVVJJQVMxDzANBgNVBAcTBkFWSUxFUzES
MBAGA1UEChMJQ0EwMS0yNDJWMSgwJgYDVQQDEx9DQTAxLTI0MlYgQXV0aG9yaXR5
IENlcnRpZmljYXRlgggBhNamrv9cgjAMBgNVHRMEBTADAQH/MA0GCSqGSIb3DQEB
CwUAA4IBAQAs8UtsfKpNvR4fBcoXYxzFfhOGE0gO/gDlseLy2sAytXqZLFwfDY6f
wocsqfANNo9WEMNuTkil3up8hsFgLR5PLwNFN6hWM+/zlajCK9Jb09u0Qa3so2Yb
oKnbXuCo2aISSq2fr+yIcj5OB6g3z0cV8Sh+4b0w5eGWWO6tyutmwkGixq/kGY76
sER4GVPfXDMX2DXDWf7XK1t2KTE74eBI6tKu0oPLkMirVzf15LdZdNnqS7OKREXt
16QLCNftZfGlts00aszuDcBGrQFsccFTNtmjwb3sbSywjPpa+2w3eGp4SuS15BfV
ija+hDAfFmTphuKE5bS29STAIYAXPyGf
-----END CERTIFICATE-----
