Certificate:
    Data:
        Version: 3 (0x2)
        Serial Number:
            d3:d7:bc:cd:93:f3:4b:92
    Signature Algorithm: sha256WithRSAEncryption
        Issuer: C=ES, ST=ASTURIAS, L=AVILES, O=CA01-24, CN=CA01-24 Authority Certificate
        Validity
            Not Before: Apr 29 09:40:18 2026 GMT
            Not After : Mar 12 11:40:18 2036 GMT
        Subject: C=ES, ST=ASTURIAS, L=AVILES, O=CA01-24, CN=inventario.asi-242v.cifpaviles.com
        Subject Public Key Info:
            Public Key Algorithm: rsaEncryption
                Public-Key: (2048 bit)
                Modulus:
                    00:ba:e3:bc:98:2c:a0:73:d4:26:08:86:f5:82:98:
                    0d:3a:19:51:46:24:ea:7d:fc:c4:b3:6e:78:10:1d:
                    b1:8c:ad:ef:d4:e8:ac:c8:13:66:cc:c6:df:e6:db:
                    d9:3f:5d:2a:7b:be:92:b8:6e:d7:4f:b2:4e:52:0c:
                    48:4b:70:d9:ad:1c:54:9d:60:03:44:37:78:a3:00:
                    b2:a9:49:0d:4b:88:5c:bc:4b:54:38:ee:20:b7:da:
                    1b:11:05:23:4b:70:82:97:48:e2:db:14:f4:b7:f6:
                    14:f3:22:97:ee:09:52:ab:aa:c4:03:3a:1c:0a:0c:
                    d3:2c:65:a0:1e:5a:10:29:c6:fd:59:71:bd:86:5b:
                    56:72:7b:24:da:3a:4f:54:f9:eb:94:76:74:01:3f:
                    24:cc:ee:e0:3d:f7:1c:cd:6d:1a:a6:2e:c8:54:73:
                    05:e0:f6:39:77:a9:dd:ea:97:db:18:38:3e:13:82:
                    82:a3:16:0e:34:e5:cb:31:63:dc:f9:21:fb:d3:2d:
                    c1:29:b6:4b:dc:78:61:75:45:51:b2:1c:ea:6c:ae:
                    da:84:42:b9:65:1d:d7:91:e7:5e:88:ee:17:bb:f1:
                    06:5d:14:5b:06:aa:4c:13:c6:2f:c4:89:98:b4:b8:
                    cf:bd:8f:3a:2a:1f:22:cc:59:45:8d:a5:56:c5:ef:
                    9e:f3
                Exponent: 65537 (0x10001)
        X509v3 extensions:
            X509v3 Authority Key Identifier: 
                keyid:58:E9:57:EF:4E:C4:B4:57:2B:BB:F2:10:43:5F:4E:A5:22:19:DF:51

            X509v3 Subject Key Identifier: 
                93:FF:A2:62:CA:93:4F:51:92:74:CA:5D:83:6F:AA:AE:3E:A9:58:61
            Netscape Comment: 
                OpenSSL Generated Certificate
            X509v3 Basic Constraints: 
                CA:FALSE
    Signature Algorithm: sha256WithRSAEncryption
         4b:64:62:db:be:e8:28:7b:2b:f5:c6:ed:66:ee:58:6a:1d:df:
         9f:ed:4b:c1:56:59:16:dc:29:b0:b6:d2:fb:4b:8d:9c:91:19:
         a8:3a:23:cc:25:cf:04:c0:3d:cc:bc:b3:b4:27:07:5d:aa:8d:
         1f:75:58:43:c1:a8:29:21:94:ec:9f:48:9f:19:0f:41:ef:02:
         77:1e:06:97:28:fa:c7:c8:90:84:e9:44:bd:a0:53:f0:63:8a:
         f3:17:a4:18:47:7c:18:50:53:52:ac:b5:39:ff:eb:79:b0:f8:
         b9:84:9a:30:47:5a:e8:e9:61:f4:70:0e:9e:71:75:ad:31:97:
         e3:8a:10:10:2e:bc:50:9d:56:7f:8d:d2:4f:73:a1:60:8b:21:
         fd:cf:d5:da:e0:09:a6:44:47:7a:73:bc:0d:eb:8d:20:89:62:
         6a:50:fb:6d:42:e2:7d:ac:23:7d:7f:3d:91:ab:0f:ed:a0:97:
         23:7f:7f:39:e7:ed:96:db:e7:1c:4f:2b:41:75:ad:95:75:49:
         4e:d1:a5:58:a7:40:27:03:64:77:30:17:b6:82:96:ce:b8:1a:
         40:c3:db:f9:aa:1d:82:64:cc:87:26:56:2f:6f:a4:8c:ac:6f:
         e3:39:2c:49:bb:bd:b5:ca:d6:2f:ed:19:d7:63:43:7f:d4:57:
         92:09:40:c1
-----BEGIN CERTIFICATE-----
MIID2TCCAsGgAwIBAgIJANPXvM2T80uSMA0GCSqGSIb3DQEBCwUAMGsxCzAJBgNV
BAYTAkVTMREwDwYDVQQIEwhBU1RVUklBUzEPMA0GA1UEBxMGQVZJTEVTMRAwDgYD
VQQKEwdDQTAxLTI0MSYwJAYDVQQDEx1DQTAxLTI0IEF1dGhvcml0eSBDZXJ0aWZp
Y2F0ZTAeFw0yNjA0MjkwOTQwMThaFw0zNjAzMTIxMTQwMThaMHAxCzAJBgNVBAYT
AkVTMREwDwYDVQQIEwhBU1RVUklBUzEPMA0GA1UEBxMGQVZJTEVTMRAwDgYDVQQK
EwdDQTAxLTI0MSswKQYDVQQDEyJpbnZlbnRhcmlvLmFzaS0yNDJ2LmNpZnBhdmls
ZXMuY29tMIIBIjANBgkqhkiG9w0BAQEFAAOCAQ8AMIIBCgKCAQEAuuO8mCygc9Qm
CIb1gpgNOhlRRiTqffzEs254EB2xjK3v1OisyBNmzMbf5tvZP10qe76SuG7XT7JO
UgxIS3DZrRxUnWADRDd4owCyqUkNS4hcvEtUOO4gt9obEQUjS3CCl0ji2xT0t/YU
8yKX7glSq6rEAzocCgzTLGWgHloQKcb9WXG9hltWcnsk2jpPVPnrlHZ0AT8kzO7g
PfcczW0api7IVHMF4PY5d6nd6pfbGDg+E4KCoxYONOXLMWPc+SH70y3BKbZL3Hhh
dUVRshzqbK7ahEK5ZR3XkedeiO4Xu/EGXRRbBqpME8YvxImYtLjPvY86Kh8izFlF
jaVWxe+e8wIDAQABo3sweTAfBgNVHSMEGDAWgBRY6VfvTsS0Vyu78hBDX06lIhnf
UTAdBgNVHQ4EFgQUk/+iYsqTT1GSdMpdg2+qrj6pWGEwLAYJYIZIAYb4QgENBB8W
HU9wZW5TU0wgR2VuZXJhdGVkIENlcnRpZmljYXRlMAkGA1UdEwQCMAAwDQYJKoZI
hvcNAQELBQADggEBAEtkYtu+6Ch7K/XG7WbuWGod35/tS8FWWRbcKbC20vtLjZyR
Gag6I8wlzwTAPcy8s7QnB12qjR91WEPBqCkhlOyfSJ8ZD0HvAnceBpco+sfIkITp
RL2gU/BjivMXpBhHfBhQU1KstTn/63mw+LmEmjBHWujpYfRwDp5xda0xl+OKEBAu
vFCdVn+N0k9zoWCLIf3P1drgCaZER3pzvA3rjSCJYmpQ+21C4n2sI31/PZGrD+2g
lyN/fznn7Zbb5xxPK0F1rZV1SU7RpVinQCcDZHcwF7aCls64GkDD2/mqHYJkzIcm
Vi9vpIysb+M5LEm7vbXK1i/tGddjQ3/UV5IJQME=
-----END CERTIFICATE-----

Bag Attributes
    localKeyID: CC F2 75 7D 58 4E 1A 90 82 87 C3 CE A8 FF A1 63 53 F7 C7 C8 
    friendlyName: inventario.asi-242v.cifpaviles.com
subject=C = ES, ST = ASTURIAS, L = AVILES, O = CA01-24, CN = inventario.asi-242v.cifpaviles.com
issuer=C = ES, ST = ASTURIAS, L = AVILES, O = CA01-24, CN = CA01-24 Authority Certificate
-----BEGIN CERTIFICATE-----
MIID2TCCAsGgAwIBAgIJANPXvM2T80uSMA0GCSqGSIb3DQEBCwUAMGsxCzAJBgNV
BAYTAkVTMREwDwYDVQQIEwhBU1RVUklBUzEPMA0GA1UEBxMGQVZJTEVTMRAwDgYD
VQQKEwdDQTAxLTI0MSYwJAYDVQQDEx1DQTAxLTI0IEF1dGhvcml0eSBDZXJ0aWZp
Y2F0ZTAeFw0yNjA0MjkwOTQwMThaFw0zNjAzMTIxMTQwMThaMHAxCzAJBgNVBAYT
AkVTMREwDwYDVQQIEwhBU1RVUklBUzEPMA0GA1UEBxMGQVZJTEVTMRAwDgYDVQQK
EwdDQTAxLTI0MSswKQYDVQQDEyJpbnZlbnRhcmlvLmFzaS0yNDJ2LmNpZnBhdmls
ZXMuY29tMIIBIjANBgkqhkiG9w0BAQEFAAOCAQ8AMIIBCgKCAQEAuuO8mCygc9Qm
CIb1gpgNOhlRRiTqffzEs254EB2xjK3v1OisyBNmzMbf5tvZP10qe76SuG7XT7JO
UgxIS3DZrRxUnWADRDd4owCyqUkNS4hcvEtUOO4gt9obEQUjS3CCl0ji2xT0t/YU
8yKX7glSq6rEAzocCgzTLGWgHloQKcb9WXG9hltWcnsk2jpPVPnrlHZ0AT8kzO7g
PfcczW0api7IVHMF4PY5d6nd6pfbGDg+E4KCoxYONOXLMWPc+SH70y3BKbZL3Hhh
dUVRshzqbK7ahEK5ZR3XkedeiO4Xu/EGXRRbBqpME8YvxImYtLjPvY86Kh8izFlF
jaVWxe+e8wIDAQABo3sweTAfBgNVHSMEGDAWgBRY6VfvTsS0Vyu78hBDX06lIhnf
UTAdBgNVHQ4EFgQUk/+iYsqTT1GSdMpdg2+qrj6pWGEwLAYJYIZIAYb4QgENBB8W
HU9wZW5TU0wgR2VuZXJhdGVkIENlcnRpZmljYXRlMAkGA1UdEwQCMAAwDQYJKoZI
hvcNAQELBQADggEBAEtkYtu+6Ch7K/XG7WbuWGod35/tS8FWWRbcKbC20vtLjZyR
Gag6I8wlzwTAPcy8s7QnB12qjR91WEPBqCkhlOyfSJ8ZD0HvAnceBpco+sfIkITp
RL2gU/BjivMXpBhHfBhQU1KstTn/63mw+LmEmjBHWujpYfRwDp5xda0xl+OKEBAu
vFCdVn+N0k9zoWCLIf3P1drgCaZER3pzvA3rjSCJYmpQ+21C4n2sI31/PZGrD+2g
lyN/fznn7Zbb5xxPK0F1rZV1SU7RpVinQCcDZHcwF7aCls64GkDD2/mqHYJkzIcm
Vi9vpIysb+M5LEm7vbXK1i/tGddjQ3/UV5IJQME=
-----END CERTIFICATE-----
